target datalayout = "e-m:e-p270:32:32-p271:32:32-p272:64:64-i64:64-i128:128-f80:128-n8:16:32:64-S128"
target triple = "x86_64-pc-linux-gnu"

; Function Attrs: mustprogress uwtable
define void @_ZN3g2o8skipLineERSi(ptr noundef nonnull align 8 dereferenceable(16) %0) #4 {
  %2 = alloca ptr, align 8
  %3 = alloca i8, align 1
  store ptr %0, ptr %2, align 8
  store i8 32, ptr %3, align 1
  br label %4

4:                                                ; preds = %25, %1
  %5 = load i8, ptr %3, align 1
  %6 = sext i8 %5 to i32
  %7 = icmp ne i32 %6, 10
  br i1 %7, label %8, label %23

8:                                                ; preds = %4
  %9 = load ptr, ptr %2, align 8
  %10 = load ptr, ptr %9, align 8
  %11 = getelementptr i8, ptr %10, i64 -24
  %12 = load i64, ptr %11, align 8
  %13 = getelementptr inbounds i8, ptr %9, i64 %12
  %14 = call noundef zeroext i1 @_ZNKSt9basic_iosIcSt11char_traitsIcEE4goodEv(ptr noundef nonnull align 8 dereferenceable(264) %13)
  br i1 %14, label %15, label %23

15:                                               ; preds = %8
  %16 = load ptr, ptr %2, align 8
  %17 = load ptr, ptr %16, align 8
  %18 = getelementptr i8, ptr %17, i64 -24
  %19 = load i64, ptr %18, align 8
  %20 = getelementptr inbounds i8, ptr %16, i64 %19
  %21 = call noundef zeroext i1 @_ZNKSt9basic_iosIcSt11char_traitsIcEE3eofEv(ptr noundef nonnull align 8 dereferenceable(264) %20)
  %22 = xor i1 %21, true
  br label %23

23:                                               ; preds = %15, %8, %4
  %24 = phi i1 [ false, %8 ], [ false, %4 ], [ %22, %15 ]
  br i1 %24, label %25, label %28

25:                                               ; preds = %23
  %26 = load ptr, ptr %2, align 8
  %27 = call noundef nonnull align 8 dereferenceable(16) ptr @_ZNSi3getERc(ptr noundef nonnull align 8 dereferenceable(16) %26, ptr noundef nonnull align 1 dereferenceable(1) %3)
  br label %4, !llvm.loop !8

28:                                               ; preds = %23
  ret void
}