; Function Attrs: mustprogress uwtable
define void @_ZN3g2o8skipLineERSi(ptr noundef nonnull align 8 dereferenceable(16) %0) local_unnamed_addr #3 {
  %2 = alloca i8, align 1
  store i8 32, ptr %2, align 1
  br label %3

3:                                                ; preds = %1, %15
  %4 = load ptr, ptr %0, align 8
  %5 = getelementptr i8, ptr %4, i64 -24
  %6 = load i64, ptr %5, align 8
  %7 = getelementptr inbounds i8, ptr %0, i64 %6
  %8 = call noundef zeroext i1 @_ZNKSt9basic_iosIcSt11char_traitsIcEE4goodEv(ptr noundef nonnull align 8 dereferenceable(264) %7)
  br i1 %8, label %9, label %.critedge

9:                                                ; preds = %3
  %10 = load ptr, ptr %0, align 8
  %11 = getelementptr i8, ptr %10, i64 -24
  %12 = load i64, ptr %11, align 8
  %13 = getelementptr inbounds i8, ptr %0, i64 %12
  %14 = call noundef zeroext i1 @_ZNKSt9basic_iosIcSt11char_traitsIcEE3eofEv(ptr noundef nonnull align 8 dereferenceable(264) %13)
  br i1 %14, label %.critedge, label %15

15:                                               ; preds = %9
  %16 = call noundef nonnull align 8 dereferenceable(16) ptr @_ZNSi3getERc(ptr noundef nonnull align 8 dereferenceable(16) %0, ptr noundef nonnull align 1 dereferenceable(1) %2)
  %.pr = load i8, ptr %2, align 1
  %.not = icmp eq i8 %.pr, 10
  br i1 %.not, label %.critedge, label %3, !llvm.loop !10

.critedge:                                        ; preds = %3, %15, %9
  ret void
}